target datalayout = "e-m:e-p270:32:32-p271:32:32-p272:64:64-i64:64-i128:128-f80:128-n8:16:32:64-S128"
target triple = "x86_64-pc-linux-gnu"

; Function Attrs: nounwind uwtable
define internal ptr @alloc_array_elem(ptr noundef %0, i64 noundef %1, ptr noundef %2, ptr noundef %3) #1 {
  %5 = alloca ptr, align 8
  %6 = alloca ptr, align 8
  %7 = alloca i64, align 8
  %8 = alloca ptr, align 8
  %9 = alloca ptr, align 8
  %10 = alloca ptr, align 8
  %11 = alloca i32, align 4
  %12 = alloca i32, align 4
  store ptr %0, ptr %6, align 8, !tbaa !166
  store i64 %1, ptr %7, align 8, !tbaa !96
  store ptr %2, ptr %8, align 8, !tbaa !167
  store ptr %3, ptr %9, align 8, !tbaa !167
  call void @llvm.lifetime.start.p0(i64 8, ptr %10) #13
  %13 = load ptr, ptr %8, align 8, !tbaa !167
  %14 = load i32, ptr %13, align 4, !tbaa !14
  %15 = load ptr, ptr %9, align 8, !tbaa !167
  %16 = load i32, ptr %15, align 4, !tbaa !14
  %17 = icmp eq i32 %14, %16
  br i1 %17, label %18, label %67

18:                                               ; preds = %4
  call void @llvm.lifetime.start.p0(i64 4, ptr %11) #13
  %19 = load ptr, ptr %9, align 8, !tbaa !167
  %20 = load i32, ptr %19, align 4, !tbaa !14
  %21 = icmp sgt i32 %20, 1073741823
  br i1 %21, label %22, label %23

22:                                               ; preds = %18
  br label %26

23:                                               ; preds = %18
  %24 = load ptr, ptr %9, align 8, !tbaa !167
  %25 = load i32, ptr %24, align 4, !tbaa !14
  br label %26

26:                                               ; preds = %23, %22
  %27 = phi i32 [ 1073741823, %22 ], [ %25, %23 ]
  %28 = mul nsw i32 %27, 2
  %29 = icmp sgt i32 32, %28
  br i1 %29, label %30, label %31

30:                                               ; preds = %26
  br label %42

31:                                               ; preds = %26
  %32 = load ptr, ptr %9, align 8, !tbaa !167
  %33 = load i32, ptr %32, align 4, !tbaa !14
  %34 = icmp sgt i32 %33, 1073741823
  br i1 %34, label %35, label %36

35:                                               ; preds = %31
  br label %39

36:                                               ; preds = %31
  %37 = load ptr, ptr %9, align 8, !tbaa !167
  %38 = load i32, ptr %37, align 4, !tbaa !14
  br label %39

39:                                               ; preds = %36, %35
  %40 = phi i32 [ 1073741823, %35 ], [ %38, %36 ]
  %41 = mul nsw i32 %40, 2
  br label %42

42:                                               ; preds = %39, %30
  %43 = phi i32 [ 32, %30 ], [ %41, %39 ]
  store i32 %43, ptr %11, align 4, !tbaa !14
  %44 = load ptr, ptr %8, align 8, !tbaa !167
  %45 = load i32, ptr %44, align 4, !tbaa !14
  %46 = load i32, ptr %11, align 4, !tbaa !14
  %47 = icmp sge i32 %45, %46
  br i1 %47, label %48, label %49

48:                                               ; preds = %42
  store ptr null, ptr %5, align 8
  store i32 1, ptr %12, align 4
  br label %64

49:                                               ; preds = %42
  %50 = load ptr, ptr %6, align 8, !tbaa !166
  %51 = load ptr, ptr %50, align 8, !tbaa !73
  %52 = load i32, ptr %11, align 4, !tbaa !14
  %53 = sext i32 %52 to i64
  %54 = load i64, ptr %7, align 8, !tbaa !96
  %55 = call ptr @av_realloc_f(ptr noundef %51, i64 noundef %53, i64 noundef %54)
  %56 = load ptr, ptr %6, align 8, !tbaa !166
  store ptr %55, ptr %56, align 8, !tbaa !73
  %57 = load ptr, ptr %6, align 8, !tbaa !166
  %58 = load ptr, ptr %57, align 8, !tbaa !73
  %59 = icmp ne ptr %58, null
  br i1 %59, label %61, label %60

60:                                               ; preds = %49
  store ptr null, ptr %5, align 8
  store i32 1, ptr %12, align 4
  br label %64

61:                                               ; preds = %49
  %62 = load i32, ptr %11, align 4, !tbaa !14
  %63 = load ptr, ptr %9, align 8, !tbaa !167
  store i32 %62, ptr %63, align 4, !tbaa !14
  store i32 0, ptr %12, align 4
  br label %64

64:                                               ; preds = %61, %60, %48
  call void @llvm.lifetime.end.p0(i64 4, ptr %11) #13
  %65 = load i32, ptr %12, align 4
  switch i32 %65, label %82 [
    i32 0, label %66
  ]

66:                                               ; preds = %64
  br label %67

67:                                               ; preds = %66, %4
  %68 = load ptr, ptr %6, align 8, !tbaa !166
  %69 = load ptr, ptr %68, align 8, !tbaa !73
  %70 = load i64, ptr %7, align 8, !tbaa !96
  %71 = load ptr, ptr %8, align 8, !tbaa !167
  %72 = load i32, ptr %71, align 4, !tbaa !14
  %73 = sext i32 %72 to i64
  %74 = mul i64 %70, %73
  %75 = getelementptr inbounds nuw i8, ptr %69, i64 %74
  store ptr %75, ptr %10, align 8, !tbaa !73
  %76 = load ptr, ptr %10, align 8, !tbaa !73
  %77 = load i64, ptr %7, align 8, !tbaa !96
  call void @llvm.memset.p0.i64(ptr align 1 %76, i8 0, i64 %77, i1 false)
  %78 = load ptr, ptr %8, align 8, !tbaa !167
  %79 = load i32, ptr %78, align 4, !tbaa !14
  %80 = add nsw i32 %79, 1
  store i32 %80, ptr %78, align 4, !tbaa !14
  %81 = load ptr, ptr %10, align 8, !tbaa !73
  store ptr %81, ptr %5, align 8
  store i32 1, ptr %12, align 4
  br label %82

82:                                               ; preds = %67, %64
  call void @llvm.lifetime.end.p0(i64 8, ptr %10) #13
  %83 = load ptr, ptr %5, align 8
  ret ptr %83
}