; Function Attrs: nounwind uwtable
define internal fastcc noundef ptr @alloc_array_elem(ptr noundef nonnull captures(none) %0, i64 noundef range(i64 24, 49) %1, ptr noundef nonnull captures(none) %2, ptr noundef nonnull captures(none) %3) unnamed_addr #1 {
  %5 = load i32, ptr %2, align 4, !tbaa !45
  %6 = load i32, ptr %3, align 4, !tbaa !45
  %7 = icmp eq i32 %5, %6
  br i1 %7, label %8, label %._crit_edge

._crit_edge:                                      ; preds = %4
  %.pre = load ptr, ptr %0, align 8, !tbaa !115
  br label %16

8:                                                ; preds = %4
  %9 = icmp slt i32 %5, 16
  %10 = tail call i32 @llvm.smin.i32(i32 %5, i32 1073741823)
  %spec.select28 = shl i32 %10, 1
  %11 = select i1 %9, i32 32, i32 %spec.select28
  %.not = icmp slt i32 %5, %11
  br i1 %.not, label %12, label %24

12:                                               ; preds = %8
  %13 = load ptr, ptr %0, align 8, !tbaa !115
  %14 = sext i32 %11 to i64
  %15 = tail call ptr @av_realloc_f(ptr noundef %13, i64 noundef %14, i64 noundef %1) #16
  store ptr %15, ptr %0, align 8, !tbaa !115
  %.not27 = icmp eq ptr %15, null
  br i1 %.not27, label %24, label %.critedge

.critedge:                                        ; preds = %12
  store i32 %11, ptr %3, align 4, !tbaa !45
  %.pre29 = load i32, ptr %2, align 4, !tbaa !45
  br label %16

16:                                               ; preds = %._crit_edge, %.critedge
  %17 = phi i32 [ %5, %._crit_edge ], [ %.pre29, %.critedge ]
  %18 = phi ptr [ %.pre, %._crit_edge ], [ %15, %.critedge ]
  %19 = sext i32 %17 to i64
  %20 = mul nsw i64 %1, %19
  %21 = getelementptr inbounds nuw i8, ptr %18, i64 %20
  tail call void @llvm.memset.p0.i64(ptr noundef nonnull align 1 dereferenceable(1) %21, i8 0, i64 %1, i1 false)
  %22 = load i32, ptr %2, align 4, !tbaa !45
  %23 = add nsw i32 %22, 1
  store i32 %23, ptr %2, align 4, !tbaa !45
  br label %24

24:                                               ; preds = %8, %12, %16
  %.1 = phi ptr [ %21, %16 ], [ null, %12 ], [ null, %8 ]
  ret ptr %.1
}